; Function Attrs: nounwind uwtable
define range(i32 -901, 1) i32 @nghttp2_hd_deflate_new(ptr noundef writeonly captures(none) %0, i64 noundef %1) local_unnamed_addr #0 {
  %3 = tail call ptr @nghttp2_mem_default() #12
  %4 = tail call ptr @nghttp2_mem_malloc(ptr noundef %3, i64 noundef 1112) #12
  %5 = icmp eq ptr %4, null
  br i1 %5, label %nghttp2_hd_deflate_new2.exit, label %6

6:                                                ; preds = %2
  %7 = getelementptr inbounds nuw i8, ptr %4, i64 32
  store ptr %3, ptr %7, align 8, !tbaa !33
  %8 = getelementptr inbounds nuw i8, ptr %4, i64 60
  store i8 0, ptr %8, align 4, !tbaa !38
  %9 = getelementptr inbounds nuw i8, ptr %4, i64 48
  store i64 4096, ptr %9, align 8, !tbaa !39
  %10 = tail call ptr @nghttp2_mem_malloc(ptr noundef %3, i64 noundef 1024) #12
  store ptr %10, ptr %4, align 8, !tbaa !40
  %11 = icmp eq ptr %10, null
  br i1 %11, label %nghttp2_hd_deflate_init2.exit.i, label %12

12:                                               ; preds = %6
  %13 = getelementptr inbounds nuw i8, ptr %4, i64 8
  store i64 127, ptr %13, align 8, !tbaa !41
  %14 = getelementptr inbounds nuw i8, ptr %4, i64 16
  tail call void @llvm.memset.p0.i64(ptr noundef nonnull align 8 dereferenceable(16) %14, i8 0, i64 16, i1 false)
  %15 = getelementptr inbounds nuw i8, ptr %4, i64 40
  store i64 0, ptr %15, align 8, !tbaa !42
  %16 = getelementptr inbounds nuw i8, ptr %4, i64 56
  store i32 0, ptr %16, align 8, !tbaa !43
  %17 = getelementptr inbounds nuw i8, ptr %4, i64 64
  tail call void @llvm.memset.p0.i64(ptr noundef nonnull align 8 dereferenceable(1024) %17, i8 0, i64 1024, i1 false)
  %18 = icmp ult i64 %1, 4096
  br i1 %18, label %19, label %20

19:                                               ; preds = %12
  store i64 %1, ptr %9, align 8, !tbaa !49
  br label %20

nghttp2_hd_deflate_init2.exit.i:                  ; preds = %6
  tail call void @nghttp2_mem_free(ptr noundef %3, ptr noundef nonnull %4) #12
  br label %nghttp2_hd_deflate_new2.exit

20:                                               ; preds = %19, %12
  %.sink.i.i = phi i8 [ 1, %19 ], [ 0, %12 ]
  %21 = getelementptr inbounds nuw i8, ptr %4, i64 1104
  store i8 %.sink.i.i, ptr %21, align 8, !tbaa !44
  %22 = getelementptr inbounds nuw i8, ptr %4, i64 1088
  store i64 %1, ptr %22, align 8, !tbaa !47
  %23 = getelementptr inbounds nuw i8, ptr %4, i64 1096
  store i64 4294967295, ptr %23, align 8, !tbaa !48
  store ptr %4, ptr %0, align 8, !tbaa !100
  br label %nghttp2_hd_deflate_new2.exit

nghttp2_hd_deflate_new2.exit:                     ; preds = %2, %nghttp2_hd_deflate_init2.exit.i, %20
  %.0.i = phi i32 [ -901, %nghttp2_hd_deflate_init2.exit.i ], [ 0, %20 ], [ -901, %2 ]
  ret i32 %.0.i
}